target datalayout = "e-m:e-p270:32:32-p271:32:32-p272:64:64-i64:64-i128:128-f80:128-n8:16:32:64-S128"
target triple = "x86_64-pc-linux-gnu"

%"class.marisa::Trie" = type { %"class.marisa::scoped_ptr" }
%"class.marisa::scoped_ptr" = type { ptr }
%"class.marisa::Exception" = type { %"class.std::exception", ptr, i32, i32, ptr }
%"class.std::exception" = type { ptr }
%"class.marisa::grimoire::io::Mapper" = type <{ ptr, ptr, i64, i64, i32, [4 x i8] }>
%"class.marisa::grimoire::trie::LoudsTrie" = type { %"class.marisa::grimoire::vector::BitVector", %"class.marisa::grimoire::vector::BitVector", %"class.marisa::grimoire::vector::BitVector", %"class.marisa::grimoire::vector::Vector.4", %"class.marisa::grimoire::vector::FlatVector", %"class.marisa::grimoire::trie::Tail", %"class.marisa::scoped_ptr", %"class.marisa::grimoire::vector::Vector.8", i64, i64, %"class.marisa::grimoire::trie::Config", %"class.marisa::grimoire::io::Mapper" }
%"class.marisa::grimoire::vector::BitVector" = type { %"class.marisa::grimoire::vector::Vector", i64, i64, %"class.marisa::grimoire::vector::Vector.0", %"class.marisa::grimoire::vector::Vector.2", %"class.marisa::grimoire::vector::Vector.2" }
%"class.marisa::grimoire::vector::Vector" = type <{ %"class.marisa::scoped_array", ptr, ptr, i64, i64, i8, [7 x i8] }>
%"class.marisa::scoped_array" = type { ptr }
%"class.marisa::grimoire::vector::Vector.0" = type <{ %"class.marisa::scoped_array", ptr, ptr, i64, i64, i8, [7 x i8] }>
%"class.marisa::grimoire::vector::Vector.2" = type <{ %"class.marisa::scoped_array", ptr, ptr, i64, i64, i8, [7 x i8] }>
%"class.marisa::grimoire::vector::Vector.4" = type <{ %"class.marisa::scoped_array", ptr, ptr, i64, i64, i8, [7 x i8] }>
%"class.marisa::grimoire::vector::FlatVector" = type { %"class.marisa::grimoire::vector::Vector", i64, i32, i64 }
%"class.marisa::grimoire::trie::Tail" = type { %"class.marisa::grimoire::vector::Vector.6", %"class.marisa::grimoire::vector::BitVector" }
%"class.marisa::grimoire::vector::Vector.6" = type <{ %"class.marisa::scoped_array", ptr, ptr, i64, i64, i8, [7 x i8] }>
%"class.marisa::grimoire::vector::Vector.8" = type <{ %"class.marisa::scoped_array", ptr, ptr, i64, i64, i8, [7 x i8] }>
%"class.marisa::grimoire::trie::Config" = type <{ i64, i32, i32, i32, [4 x i8] }>

@.str = private unnamed_addr constant [128 x i8] c"generated/home/dtcxzyw/WorkSpace/Projects/compilers/llvm-opt-benchmark/bench/opencc/OpenCC/deps/marisa-0.2.6/lib/marisa/trie.cc\00", align 1
@_ZTIN6marisa9ExceptionE = linkonce_odr constant { ptr, ptr, ptr } { ptr getelementptr inbounds (ptr, ptr @_ZTVN10__cxxabiv120__si_class_type_infoE, i64 2), ptr @_ZTSN6marisa9ExceptionE, ptr @_ZTISt9exception }, comdat, align 8
@.str.22 = private unnamed_addr constant [173 x i8] c"generated/home/dtcxzyw/WorkSpace/Projects/compilers/llvm-opt-benchmark/bench/opencc/OpenCC/deps/marisa-0.2.6/lib/marisa/trie.cc:139: MARISA_STATE_ERROR: trie_.get() == NULL\00", align 1
@_ZTVN6marisa9ExceptionE = linkonce_odr unnamed_addr constant { [5 x ptr] } { [5 x ptr] [ptr null, ptr @_ZTIN6marisa9ExceptionE, ptr @_ZNSt9exceptionD2Ev, ptr @_ZN6marisa9ExceptionD0Ev, ptr @_ZNK6marisa9Exception4whatEv] }, comdat, align 8
@_ZTVSt9exception = available_externally unnamed_addr constant { [5 x ptr] } { [5 x ptr] [ptr null, ptr @_ZTISt9exception, ptr @_ZNSt9exceptionD1Ev, ptr @_ZNSt9exceptionD0Ev, ptr @_ZNKSt9exception4whatEv] }, align 8

; Function Attrs: mustprogress nounwind uwtable
define linkonce_odr noundef i32 @_ZNK6marisa8grimoire4trie6Config10node_orderEv(ptr noundef nonnull align 8 dereferenceable(20) %0) #5 comdat align 2 {
  %2 = alloca ptr, align 8
  store ptr %0, ptr %2, align 8, !tbaa !50
  %3 = load ptr, ptr %2, align 8
  %4 = getelementptr inbounds nuw %"class.marisa::grimoire::trie::Config", ptr %3, i32 0, i32 3
  %5 = load i32, ptr %4, align 8, !tbaa !70
  ret i32 %5
}

; Function Attrs: mustprogress nounwind uwtable
define linkonce_odr void @_ZNSt9exceptionC2Ev(ptr noundef nonnull align 8 dereferenceable(8) %0) unnamed_addr #5 comdat align 2 {
  %2 = alloca ptr, align 8
  store ptr %0, ptr %2, align 8, !tbaa !43
  %3 = load ptr, ptr %2, align 8
  store ptr getelementptr inbounds inrange(-16, 24) ({ [5 x ptr] }, ptr @_ZTVSt9exception, i32 0, i32 0, i32 2), ptr %3, align 8, !tbaa !24
  ret void
}

; Function Attrs: mustprogress uwtable
define linkonce_odr noundef i32 @_ZNK6marisa8grimoire4trie9LoudsTrie10node_orderEv(ptr noundef nonnull align 8 dereferenceable(1136) %0) #4 comdat align 2 {
  %2 = alloca ptr, align 8
  store ptr %0, ptr %2, align 8, !tbaa !17
  %3 = load ptr, ptr %2, align 8
  %4 = getelementptr inbounds nuw %"class.marisa::grimoire::trie::LoudsTrie", ptr %3, i32 0, i32 10
  %5 = call noundef i32 @_ZNK6marisa8grimoire4trie6Config10node_orderEv(ptr noundef nonnull align 8 dereferenceable(20) %4)
  ret i32 %5
}

; Function Attrs: mustprogress nounwind uwtable
define linkonce_odr noundef ptr @_ZNK6marisa10scoped_ptrINS_8grimoire4trie9LoudsTrieEEptEv(ptr noundef nonnull align 8 dereferenceable(8) %0) #5 comdat align 2 {
  %2 = alloca ptr, align 8
  store ptr %0, ptr %2, align 8, !tbaa !8
  %3 = load ptr, ptr %2, align 8
  %4 = getelementptr inbounds nuw %"class.marisa::scoped_ptr", ptr %3, i32 0, i32 0
  %5 = load ptr, ptr %4, align 8, !tbaa !10
  ret ptr %5
}

; Function Attrs: mustprogress nounwind uwtable
define linkonce_odr void @_ZN6marisa9ExceptionC2EPKci18marisa_error_code_S2_(ptr noundef nonnull align 8 dereferenceable(32) %0, ptr noundef %1, i32 noundef %2, i32 noundef %3, ptr noundef %4) unnamed_addr #5 comdat align 2 {
  %6 = alloca ptr, align 8
  %7 = alloca ptr, align 8
  %8 = alloca i32, align 4
  %9 = alloca i32, align 4
  %10 = alloca ptr, align 8
  store ptr %0, ptr %6, align 8, !tbaa !18
  store ptr %1, ptr %7, align 8, !tbaa !20
  store i32 %2, ptr %8, align 4, !tbaa !15
  store i32 %3, ptr %9, align 4, !tbaa !22
  store ptr %4, ptr %10, align 8, !tbaa !20
  %11 = load ptr, ptr %6, align 8
  call void @_ZNSt9exceptionC2Ev(ptr noundef nonnull align 8 dereferenceable(8) %11) #3
  store ptr getelementptr inbounds inrange(-16, 24) ({ [5 x ptr] }, ptr @_ZTVN6marisa9ExceptionE, i32 0, i32 0, i32 2), ptr %11, align 8, !tbaa !24
  %12 = getelementptr inbounds nuw %"class.marisa::Exception", ptr %11, i32 0, i32 1
  %13 = load ptr, ptr %7, align 8, !tbaa !20
  store ptr %13, ptr %12, align 8, !tbaa !26
  %14 = getelementptr inbounds nuw %"class.marisa::Exception", ptr %11, i32 0, i32 2
  %15 = load i32, ptr %8, align 4, !tbaa !15
  store i32 %15, ptr %14, align 8, !tbaa !29
  %16 = getelementptr inbounds nuw %"class.marisa::Exception", ptr %11, i32 0, i32 3
  %17 = load i32, ptr %9, align 4, !tbaa !22
  store i32 %17, ptr %16, align 4, !tbaa !30
  %18 = getelementptr inbounds nuw %"class.marisa::Exception", ptr %11, i32 0, i32 4
  %19 = load ptr, ptr %10, align 8, !tbaa !20
  store ptr %19, ptr %18, align 8, !tbaa !31
  ret void
}

; Function Attrs: mustprogress nounwind uwtable
define linkonce_odr noundef ptr @_ZNK6marisa10scoped_ptrINS_8grimoire4trie9LoudsTrieEE3getEv(ptr noundef nonnull align 8 dereferenceable(8) %0) #5 comdat align 2 {
  %2 = alloca ptr, align 8
  store ptr %0, ptr %2, align 8, !tbaa !8
  %3 = load ptr, ptr %2, align 8
  %4 = getelementptr inbounds nuw %"class.marisa::scoped_ptr", ptr %3, i32 0, i32 0
  %5 = load ptr, ptr %4, align 8, !tbaa !10
  ret ptr %5
}

; Function Attrs: mustprogress uwtable
define noundef i32 @_ZNK6marisa4Trie10node_orderEv(ptr noundef nonnull align 8 dereferenceable(8) %0) #4 align 2 personality ptr @__gxx_personality_v0 {
  %2 = alloca ptr, align 8
  %3 = alloca ptr, align 8
  %4 = alloca i1, align 1
  %5 = alloca ptr, align 8
  %6 = alloca i32, align 4
  store ptr %0, ptr %2, align 8, !tbaa !3
  %7 = load ptr, ptr %2, align 8
  %8 = getelementptr inbounds nuw %"class.marisa::Trie", ptr %7, i32 0, i32 0
  %9 = call noundef ptr @_ZNK6marisa10scoped_ptrINS_8grimoire4trie9LoudsTrieEE3getEv(ptr noundef nonnull align 8 dereferenceable(8) %8)
  %10 = icmp eq ptr %9, null
  store i1 false, ptr %4, align 1
  br i1 %10, label %11, label %15

11:                                               ; preds = %1
  %12 = call ptr @__cxa_allocate_exception(i64 32) #3
  store ptr %12, ptr %3, align 8
  store i1 true, ptr %4, align 1
  invoke void @_ZN6marisa9ExceptionC2EPKci18marisa_error_code_S2_(ptr noundef nonnull align 8 dereferenceable(32) %12, ptr noundef @.str, i32 noundef 139, i32 noundef 1, ptr noundef @.str.22)
          to label %13 unwind label %19

13:                                               ; preds = %11
  call void @__cxa_throw(ptr %12, ptr @_ZTIN6marisa9ExceptionE, ptr @_ZNSt9exceptionD2Ev) #12
  unreachable

14:                                               ; No predecessors!
  br label %15

15:                                               ; preds = %14, %1
  %16 = getelementptr inbounds nuw %"class.marisa::Trie", ptr %7, i32 0, i32 0
  %17 = call noundef ptr @_ZNK6marisa10scoped_ptrINS_8grimoire4trie9LoudsTrieEEptEv(ptr noundef nonnull align 8 dereferenceable(8) %16)
  %18 = call noundef i32 @_ZNK6marisa8grimoire4trie9LoudsTrie10node_orderEv(ptr noundef nonnull align 8 dereferenceable(1136) %17)
  ret i32 %18

19:                                               ; preds = %11
  %20 = landingpad { ptr, i32 }
          cleanup
  %21 = extractvalue { ptr, i32 } %20, 0
  store ptr %21, ptr %5, align 8
  %22 = extractvalue { ptr, i32 } %20, 1
  store i32 %22, ptr %6, align 4
  %23 = load i1, ptr %4, align 1
  br i1 %23, label %24, label %26

24:                                               ; preds = %19
  %25 = load ptr, ptr %3, align 8
  call void @__cxa_free_exception(ptr %25) #3
  br label %26

26:                                               ; preds = %24, %19
  br label %27

27:                                               ; preds = %26
  %28 = load ptr, ptr %5, align 8
  %29 = load i32, ptr %6, align 4
  %30 = insertvalue { ptr, i32 } poison, ptr %28, 0
  %31 = insertvalue { ptr, i32 } %30, i32 %29, 1
  resume { ptr, i32 } %31
}